; Function Attrs: mustprogress nounwind uwtable
define hidden noundef ptr @_ZNK10DCmdParser19argument_name_arrayEv(ptr nocapture noundef nonnull readonly align 8 dereferenceable(16) %0) local_unnamed_addr #2 align 2 {
  br label %2

2:                                                ; preds = %2, %1
  %.pn.i = phi ptr [ %0, %1 ], [ %.07.i, %2 ]
  %.0.i = phi i32 [ 0, %1 ], [ %3, %2 ]
  %.07.in.i = getelementptr inbounds i8, ptr %.pn.i, i64 8
  %.07.i = load ptr, ptr %.07.in.i, align 8
  %.not.i = icmp eq ptr %.07.i, null
  %3 = add nuw nsw i32 %.0.i, 1
  br i1 %.not.i, label %.preheader.i, label %2, !llvm.loop !27

.preheader.i:                                     ; preds = %2
  %.1810.i = load ptr, ptr %0, align 8
  %.not911.i = icmp eq ptr %.1810.i, null
  br i1 %.not911.i, label %_ZNK10DCmdParser13num_argumentsEv.exit, label %.lr.ph.i

.lr.ph.i:                                         ; preds = %.preheader.i, %.lr.ph.i
  %.1813.i = phi ptr [ %.18.i, %.lr.ph.i ], [ %.1810.i, %.preheader.i ]
  %.112.i = phi i32 [ %4, %.lr.ph.i ], [ %.0.i, %.preheader.i ]
  %4 = add nuw nsw i32 %.112.i, 1
  %5 = getelementptr inbounds i8, ptr %.1813.i, i64 8
  %.18.i = load ptr, ptr %5, align 8
  %.not9.i = icmp eq ptr %.18.i, null
  br i1 %.not9.i, label %_ZNK10DCmdParser13num_argumentsEv.exit, label %.lr.ph.i, !llvm.loop !28

_ZNK10DCmdParser13num_argumentsEv.exit:           ; preds = %.lr.ph.i, %.preheader.i
  %.1.lcssa.i = phi i32 [ %.0.i, %.preheader.i ], [ %4, %.lr.ph.i ]
  %6 = tail call noundef ptr @_Z23resource_allocate_bytesmN17AllocFailStrategy13AllocFailEnumE(i64 noundef 24, i32 noundef 0) #19
  %7 = tail call noundef ptr @_ZN30GrowableArrayResourceAllocator8allocateEii(i32 noundef %.1.lcssa.i, i32 noundef 8) #19
  store i32 0, ptr %6, align 4
  %8 = getelementptr inbounds i8, ptr %6, i64 4
  store i32 %.1.lcssa.i, ptr %8, align 4
  %9 = getelementptr inbounds i8, ptr %6, i64 8
  store ptr %7, ptr %9, align 8
  %10 = icmp sgt i32 %.1.lcssa.i, 0
  br i1 %10, label %.lr.ph.preheader.i.i, label %_ZN13GrowableArrayIPKcEC2Ei.exit

.lr.ph.preheader.i.i:                             ; preds = %_ZNK10DCmdParser13num_argumentsEv.exit
  %11 = zext nneg i32 %.1.lcssa.i to i64
  %12 = shl nuw nsw i64 %11, 3
  tail call void @llvm.memset.p0.i64(ptr align 8 %7, i8 0, i64 %12, i1 false)
  br label %_ZN13GrowableArrayIPKcEC2Ei.exit

_ZN13GrowableArrayIPKcEC2Ei.exit:                 ; preds = %_ZNK10DCmdParser13num_argumentsEv.exit, %.lr.ph.preheader.i.i
  %13 = getelementptr inbounds i8, ptr %6, i64 16
  store i64 0, ptr %13, align 8
  %.0.in15 = getelementptr inbounds i8, ptr %0, i64 8
  %.016 = load ptr, ptr %.0.in15, align 8
  %.not17 = icmp eq ptr %.016, null
  br i1 %.not17, label %.preheader, label %.lr.ph

.preheader:                                       ; preds = %_ZN26GrowableArrayWithAllocatorIPKc13GrowableArrayIS1_EE6appendERKS1_.exit, %_ZN13GrowableArrayIPKcEC2Ei.exit
  %.119 = load ptr, ptr %0, align 8
  %.not1020 = icmp eq ptr %.119, null
  br i1 %.not1020, label %._crit_edge, label %.lr.ph22

.lr.ph:                                           ; preds = %_ZN13GrowableArrayIPKcEC2Ei.exit, %_ZN26GrowableArrayWithAllocatorIPKc13GrowableArrayIS1_EE6appendERKS1_.exit
  %.018 = phi ptr [ %.0, %_ZN26GrowableArrayWithAllocatorIPKc13GrowableArrayIS1_EE6appendERKS1_.exit ], [ %.016, %_ZN13GrowableArrayIPKcEC2Ei.exit ]
  %14 = getelementptr inbounds i8, ptr %.018, i64 16
  %15 = load ptr, ptr %14, align 8
  %16 = load i32, ptr %6, align 8
  %17 = load i32, ptr %8, align 4
  %18 = icmp eq i32 %16, %17
  br i1 %18, label %19, label %_ZN26GrowableArrayWithAllocatorIPKc13GrowableArrayIS1_EE6appendERKS1_.exit

19:                                               ; preds = %.lr.ph
  %20 = add nsw i32 %16, 1
  %21 = icmp sgt i32 %16, -1
  %22 = xor i32 %16, -2147483648
  %23 = and i32 %22, %20
  %24 = icmp eq i32 %23, 0
  %25 = and i1 %21, %24
  %26 = tail call range(i32 0, 33) i32 @llvm.ctlz.i32(i32 %20, i1 true)
  %27 = sub nuw nsw i32 32, %26
  %28 = shl nuw i32 1, %27
  %.0.i.i.i.i = select i1 %25, i32 %20, i32 %28
  tail call void @_ZN26GrowableArrayWithAllocatorIPKc13GrowableArrayIS1_EE9expand_toEi(ptr noundef nonnull align 8 dereferenceable(16) %6, i32 noundef %.0.i.i.i.i)
  %.pre.i = load i32, ptr %6, align 8
  br label %_ZN26GrowableArrayWithAllocatorIPKc13GrowableArrayIS1_EE6appendERKS1_.exit

_ZN26GrowableArrayWithAllocatorIPKc13GrowableArrayIS1_EE6appendERKS1_.exit: ; preds = %.lr.ph, %19
  %29 = phi i32 [ %.pre.i, %19 ], [ %16, %.lr.ph ]
  %30 = add nsw i32 %29, 1
  store i32 %30, ptr %6, align 8
  %31 = load ptr, ptr %9, align 8
  %32 = sext i32 %29 to i64
  %33 = getelementptr inbounds ptr, ptr %31, i64 %32
  store ptr %15, ptr %33, align 8
  %.0.in = getelementptr inbounds i8, ptr %.018, i64 8
  %.0 = load ptr, ptr %.0.in, align 8
  %.not = icmp eq ptr %.0, null
  br i1 %.not, label %.preheader, label %.lr.ph, !llvm.loop !29

.lr.ph22:                                         ; preds = %.preheader, %_ZN26GrowableArrayWithAllocatorIPKc13GrowableArrayIS1_EE6appendERKS1_.exit13
  %.121 = phi ptr [ %.1, %_ZN26GrowableArrayWithAllocatorIPKc13GrowableArrayIS1_EE6appendERKS1_.exit13 ], [ %.119, %.preheader ]
  %34 = getelementptr inbounds i8, ptr %.121, i64 16
  %35 = load ptr, ptr %34, align 8
  %36 = load i32, ptr %6, align 8
  %37 = load i32, ptr %8, align 4
  %38 = icmp eq i32 %36, %37
  br i1 %38, label %39, label %_ZN26GrowableArrayWithAllocatorIPKc13GrowableArrayIS1_EE6appendERKS1_.exit13

39:                                               ; preds = %.lr.ph22
  %40 = add nsw i32 %36, 1
  %41 = icmp sgt i32 %36, -1
  %42 = xor i32 %36, -2147483648
  %43 = and i32 %42, %40
  %44 = icmp eq i32 %43, 0
  %45 = and i1 %41, %44
  %46 = tail call range(i32 0, 33) i32 @llvm.ctlz.i32(i32 %40, i1 true)
  %47 = sub nuw nsw i32 32, %46
  %48 = shl nuw i32 1, %47
  %.0.i.i.i.i11 = select i1 %45, i32 %40, i32 %48
  tail call void @_ZN26GrowableArrayWithAllocatorIPKc13GrowableArrayIS1_EE9expand_toEi(ptr noundef nonnull align 8 dereferenceable(16) %6, i32 noundef %.0.i.i.i.i11)
  %.pre.i12 = load i32, ptr %6, align 8
  br label %_ZN26GrowableArrayWithAllocatorIPKc13GrowableArrayIS1_EE6appendERKS1_.exit13

_ZN26GrowableArrayWithAllocatorIPKc13GrowableArrayIS1_EE6appendERKS1_.exit13: ; preds = %.lr.ph22, %39
  %49 = phi i32 [ %.pre.i12, %39 ], [ %36, %.lr.ph22 ]
  %50 = add nsw i32 %49, 1
  store i32 %50, ptr %6, align 8
  %51 = load ptr, ptr %9, align 8
  %52 = sext i32 %49 to i64
  %53 = getelementptr inbounds ptr, ptr %51, i64 %52
  store ptr %35, ptr %53, align 8
  %54 = getelementptr inbounds i8, ptr %.121, i64 8
  %.1 = load ptr, ptr %54, align 8
  %.not10 = icmp eq ptr %.1, null
  br i1 %.not10, label %._crit_edge, label %.lr.ph22, !llvm.loop !30

._crit_edge:                                      ; preds = %_ZN26GrowableArrayWithAllocatorIPKc13GrowableArrayIS1_EE6appendERKS1_.exit13, %.preheader
  ret ptr %6
}